target datalayout = "e-m:e-p270:32:32-p271:32:32-p272:64:64-i64:64-i128:128-f80:128-n8:16:32:64-S128"
target triple = "x86_64-pc-linux-gnu"

; Function Attrs: mustprogress nounwind uwtable
define hidden noundef i32 @_ZN5zxing7StrUtil7indexOfEPKcc(ptr noundef %0, i8 noundef signext %1) #1 align 2 {
  %3 = alloca i32, align 4
  %4 = alloca ptr, align 8
  %5 = alloca i8, align 1
  %6 = alloca i32, align 4
  %7 = alloca i32, align 4
  %8 = alloca i32, align 4
  store ptr %0, ptr %4, align 8, !tbaa !29
  store i8 %1, ptr %5, align 1, !tbaa !18
  call void @llvm.lifetime.start.p0(i64 4, ptr %6) #14
  %9 = load ptr, ptr %4, align 8, !tbaa !29
  %10 = call i64 @strlen(ptr noundef %9) #18
  %11 = trunc i64 %10 to i32
  store i32 %11, ptr %6, align 4, !tbaa !17
  call void @llvm.lifetime.start.p0(i64 4, ptr %7) #14
  store i32 0, ptr %7, align 4, !tbaa !17
  br label %12

12:                                               ; preds = %30, %2
  %13 = load i32, ptr %7, align 4, !tbaa !17
  %14 = load i32, ptr %6, align 4, !tbaa !17
  %15 = icmp slt i32 %13, %14
  br i1 %15, label %17, label %16

16:                                               ; preds = %12
  store i32 2, ptr %8, align 4
  br label %33

17:                                               ; preds = %12
  %18 = load ptr, ptr %4, align 8, !tbaa !29
  %19 = load i32, ptr %7, align 4, !tbaa !17
  %20 = sext i32 %19 to i64
  %21 = getelementptr inbounds i8, ptr %18, i64 %20
  %22 = load i8, ptr %21, align 1, !tbaa !18
  %23 = sext i8 %22 to i32
  %24 = load i8, ptr %5, align 1, !tbaa !18
  %25 = sext i8 %24 to i32
  %26 = icmp eq i32 %23, %25
  br i1 %26, label %27, label %29

27:                                               ; preds = %17
  %28 = load i32, ptr %7, align 4, !tbaa !17
  store i32 %28, ptr %3, align 4
  store i32 1, ptr %8, align 4
  br label %33

29:                                               ; preds = %17
  br label %30

30:                                               ; preds = %29
  %31 = load i32, ptr %7, align 4, !tbaa !17
  %32 = add nsw i32 %31, 1
  store i32 %32, ptr %7, align 4, !tbaa !17
  br label %12, !llvm.loop !30

33:                                               ; preds = %27, %16
  call void @llvm.lifetime.end.p0(i64 4, ptr %7) #14
  %34 = load i32, ptr %8, align 4
  switch i32 %34, label %36 [
    i32 2, label %35
  ]

35:                                               ; preds = %33
  store i32 -1, ptr %3, align 4
  store i32 1, ptr %8, align 4
  br label %36

36:                                               ; preds = %35, %33
  call void @llvm.lifetime.end.p0(i64 4, ptr %6) #14
  %37 = load i32, ptr %3, align 4
  ret i32 %37
}