; Function Attrs: mustprogress nofree nounwind willreturn memory(argmem: read) uwtable
define hidden noundef range(i32 -2147483648, 2147483647) i32 @_ZN5zxing7StrUtil7indexOfEPKcc(ptr noundef readonly captures(none) %0, i8 noundef signext %1) local_unnamed_addr #8 align 2 {
  %3 = tail call i64 @strlen(ptr noundef nonnull dereferenceable(1) %0) #22
  %4 = trunc i64 %3 to i32
  %.not11 = icmp sgt i32 %4, 0
  br i1 %.not11, label %.lr.ph.preheader, label %._crit_edge

.lr.ph.preheader:                                 ; preds = %2
  %wide.trip.count = and i64 %3, 2147483647
  br label %.lr.ph

.lr.ph:                                           ; preds = %.lr.ph.preheader, %8
  %indvars.iv = phi i64 [ 0, %.lr.ph.preheader ], [ %indvars.iv.next, %8 ]
  %5 = getelementptr inbounds nuw i8, ptr %0, i64 %indvars.iv
  %6 = load i8, ptr %5, align 1, !tbaa !19
  %7 = icmp eq i8 %6, %1
  br i1 %7, label %._crit_edge.loopexit.split.loop.exit, label %8

8:                                                ; preds = %.lr.ph
  %indvars.iv.next = add nuw nsw i64 %indvars.iv, 1
  %exitcond.not = icmp eq i64 %indvars.iv.next, %wide.trip.count
  br i1 %exitcond.not, label %._crit_edge, label %.lr.ph, !llvm.loop !41

._crit_edge.loopexit.split.loop.exit:             ; preds = %.lr.ph
  %9 = trunc nuw nsw i64 %indvars.iv to i32
  br label %._crit_edge

._crit_edge:                                      ; preds = %8, %._crit_edge.loopexit.split.loop.exit, %2
  %spec.select = phi i32 [ -1, %2 ], [ %9, %._crit_edge.loopexit.split.loop.exit ], [ -1, %8 ]
  ret i32 %spec.select
}